target datalayout = "e-m:e-p270:32:32-p271:32:32-p272:64:64-i64:64-i128:128-f80:128-n8:16:32:64-S128"
target triple = "x86_64-pc-linux-gnu"

; Function Attrs: cold nounwind optsize uwtable
define internal void @init_mv_table(ptr noundef %0, ptr noundef %1, ptr noundef %2, i32 noundef %3, i32 noundef %4) #5 {
  %6 = alloca ptr, align 8
  %7 = alloca ptr, align 8
  %8 = alloca ptr, align 8
  %9 = alloca i32, align 4
  %10 = alloca i32, align 4
  %11 = alloca i32, align 4
  %12 = alloca i32, align 4
  %13 = alloca i32, align 4
  %14 = alloca i32, align 4
  %15 = alloca i32, align 4
  %16 = alloca i32, align 4
  %17 = alloca i32, align 4
  store ptr %0, ptr %6, align 8, !tbaa !85
  store ptr %1, ptr %7, align 8, !tbaa !92
  store ptr %2, ptr %8, align 8, !tbaa !80
  store i32 %3, ptr %9, align 4, !tbaa !9
  store i32 %4, ptr %10, align 4, !tbaa !9
  call void @llvm.lifetime.start.p0(i64 4, ptr %11) #8
  store i32 0, ptr %11, align 4, !tbaa !9
  br label %18

18:                                               ; preds = %34, %5
  %19 = load i32, ptr %11, align 4, !tbaa !9
  %20 = icmp slt i32 %19, 4096
  br i1 %20, label %22, label %21

21:                                               ; preds = %18
  call void @llvm.lifetime.end.p0(i64 4, ptr %11) #8
  br label %37

22:                                               ; preds = %18
  %23 = load i32, ptr %9, align 4, !tbaa !9
  %24 = shl i32 %23, 20
  %25 = load i32, ptr %11, align 4, !tbaa !9
  %26 = shl i32 %25, 8
  %27 = or i32 %24, %26
  %28 = load i32, ptr %10, align 4, !tbaa !9
  %29 = or i32 %27, %28
  %30 = load ptr, ptr %8, align 8, !tbaa !80
  %31 = load i32, ptr %11, align 4, !tbaa !9
  %32 = sext i32 %31 to i64
  %33 = getelementptr inbounds i32, ptr %30, i64 %32
  store i32 %29, ptr %33, align 4, !tbaa !9
  br label %34

34:                                               ; preds = %22
  %35 = load i32, ptr %11, align 4, !tbaa !9
  %36 = add nsw i32 %35, 1
  store i32 %36, ptr %11, align 4, !tbaa !9
  br label %18, !llvm.loop !144

37:                                               ; preds = %21
  call void @llvm.lifetime.start.p0(i64 4, ptr %12) #8
  store i32 0, ptr %12, align 4, !tbaa !9
  call void @llvm.lifetime.start.p0(i64 4, ptr %13) #8
  store i32 0, ptr %13, align 4, !tbaa !9
  br label %38

38:                                               ; preds = %77, %37
  %39 = load i32, ptr %12, align 4, !tbaa !9
  %40 = icmp ult i32 %39, 1100
  br i1 %40, label %42, label %41

41:                                               ; preds = %38
  call void @llvm.lifetime.end.p0(i64 4, ptr %13) #8
  call void @llvm.lifetime.end.p0(i64 4, ptr %12) #8
  br label %80

42:                                               ; preds = %38
  call void @llvm.lifetime.start.p0(i64 4, ptr %14) #8
  %43 = load ptr, ptr %6, align 8, !tbaa !85
  %44 = load i32, ptr %12, align 4, !tbaa !9
  %45 = zext i32 %44 to i64
  %46 = getelementptr inbounds nuw i16, ptr %43, i64 %45
  %47 = load i16, ptr %46, align 2, !tbaa !87
  %48 = zext i16 %47 to i32
  store i32 %48, ptr %14, align 4, !tbaa !9
  call void @llvm.lifetime.start.p0(i64 4, ptr %15) #8
  %49 = load ptr, ptr %7, align 8, !tbaa !92
  %50 = load i32, ptr %12, align 4, !tbaa !9
  %51 = zext i32 %50 to i64
  %52 = getelementptr inbounds nuw i8, ptr %49, i64 %51
  %53 = load i8, ptr %52, align 1, !tbaa !93
  %54 = zext i8 %53 to i32
  store i32 %54, ptr %15, align 4, !tbaa !9
  call void @llvm.lifetime.start.p0(i64 4, ptr %16) #8
  %55 = load i32, ptr %14, align 4, !tbaa !9
  %56 = ashr i32 %55, 8
  store i32 %56, ptr %16, align 4, !tbaa !9
  call void @llvm.lifetime.start.p0(i64 4, ptr %17) #8
  %57 = load i32, ptr %14, align 4, !tbaa !9
  %58 = and i32 %57, 255
  store i32 %58, ptr %17, align 4, !tbaa !9
  %59 = load i32, ptr %13, align 4, !tbaa !9
  %60 = load i32, ptr %15, align 4, !tbaa !9
  %61 = sub nsw i32 24, %60
  %62 = lshr i32 %59, %61
  %63 = load i32, ptr %15, align 4, !tbaa !9
  %64 = or i32 %62, %63
  %65 = load ptr, ptr %8, align 8, !tbaa !80
  %66 = load i32, ptr %16, align 4, !tbaa !9
  %67 = shl i32 %66, 6
  %68 = load i32, ptr %17, align 4, !tbaa !9
  %69 = or i32 %67, %68
  %70 = sext i32 %69 to i64
  %71 = getelementptr inbounds i32, ptr %65, i64 %70
  store i32 %64, ptr %71, align 4, !tbaa !9
  %72 = load i32, ptr %15, align 4, !tbaa !9
  %73 = sub nsw i32 32, %72
  %74 = shl i32 1, %73
  %75 = load i32, ptr %13, align 4, !tbaa !9
  %76 = add i32 %75, %74
  store i32 %76, ptr %13, align 4, !tbaa !9
  call void @llvm.lifetime.end.p0(i64 4, ptr %17) #8
  call void @llvm.lifetime.end.p0(i64 4, ptr %16) #8
  call void @llvm.lifetime.end.p0(i64 4, ptr %15) #8
  call void @llvm.lifetime.end.p0(i64 4, ptr %14) #8
  br label %77

77:                                               ; preds = %42
  %78 = load i32, ptr %12, align 4, !tbaa !9
  %79 = add i32 %78, 1
  store i32 %79, ptr %12, align 4, !tbaa !9
  br label %38, !llvm.loop !145

80:                                               ; preds = %41
  %81 = load i32, ptr %9, align 4, !tbaa !9
  %82 = shl i32 %81, 20
  %83 = load i32, ptr %10, align 4, !tbaa !9
  %84 = or i32 %82, %83
  %85 = load ptr, ptr %8, align 8, !tbaa !80
  %86 = getelementptr inbounds i32, ptr %85, i64 0
  store i32 %84, ptr %86, align 4, !tbaa !9
  ret void
}