; Function Attrs: cold nofree norecurse nosync nounwind optsize memory(argmem: readwrite) uwtable
define internal fastcc void @init_mv_table(ptr noundef readonly captures(none) %0, ptr noundef readonly captures(none) %1, ptr noundef writeonly captures(none) %2, i32 noundef range(i32 0, 12) %3, i32 noundef range(i32 16, 21) %4) unnamed_addr #7 {
  %6 = shl nuw nsw i32 %3, 20
  %invariant.op = or disjoint i32 %6, %4
  br label %7

7:                                                ; preds = %5, %7
  %indvars.iv = phi i64 [ 0, %5 ], [ %indvars.iv.next, %7 ]
  %8 = getelementptr inbounds nuw i32, ptr %2, i64 %indvars.iv
  %indvars.iv.tr = trunc i64 %indvars.iv to i32
  %9 = shl i32 %indvars.iv.tr, 8
  %10 = add i32 %9, %invariant.op
  store i32 %10, ptr %8, align 4, !tbaa !77
  %indvars.iv.next = add nuw nsw i64 %indvars.iv, 1
  %exitcond.not = icmp eq i64 %indvars.iv.next, 4096
  br i1 %exitcond.not, label %.preheader, label %7, !llvm.loop !134

11:                                               ; preds = %.preheader
  store i32 %invariant.op, ptr %2, align 4, !tbaa !77
  ret void

.preheader:                                       ; preds = %7, %.preheader
  %indvars.iv32 = phi i64 [ %indvars.iv.next33, %.preheader ], [ 0, %7 ]
  %.02628 = phi i32 [ %29, %.preheader ], [ 0, %7 ]
  %12 = getelementptr inbounds nuw i16, ptr %0, i64 %indvars.iv32
  %13 = load i16, ptr %12, align 2, !tbaa !83
  %14 = zext i16 %13 to i32
  %15 = getelementptr inbounds nuw i8, ptr %1, i64 %indvars.iv32
  %16 = load i8, ptr %15, align 1, !tbaa !14
  %17 = zext i8 %16 to i32
  %18 = and i32 %14, 255
  %19 = sub nsw i32 24, %17
  %20 = lshr i32 %.02628, %19
  %21 = or i32 %20, %17
  %22 = lshr i32 %14, 2
  %23 = and i32 %22, 16320
  %24 = or i32 %23, %18
  %25 = zext nneg i32 %24 to i64
  %26 = getelementptr inbounds nuw i32, ptr %2, i64 %25
  store i32 %21, ptr %26, align 4, !tbaa !77
  %27 = sub nsw i32 32, %17
  %28 = shl nuw i32 1, %27
  %29 = add i32 %28, %.02628
  %indvars.iv.next33 = add nuw nsw i64 %indvars.iv32, 1
  %exitcond35.not = icmp eq i64 %indvars.iv.next33, 1100
  br i1 %exitcond35.not, label %11, label %.preheader, !llvm.loop !135
}